target datalayout = "e-m:e-p270:32:32-p271:32:32-p272:64:64-i64:64-i128:128-f80:128-n8:16:32:64-S128"
target triple = "x86_64-unknown-linux-gnu"

%"class.icu_75::UnicodeString" = type { %"class.icu_75::Replaceable", %"union.icu_75::UnicodeString::StackBufferOrFields" }
%"class.icu_75::Replaceable" = type { %"class.icu_75::UObject" }
%"class.icu_75::UObject" = type { ptr }
%"union.icu_75::UnicodeString::StackBufferOrFields" = type { %struct.anon.0, [32 x i8] }
%struct.anon.0 = type { i16, i32, i32, ptr }
%"class.icu_75::UVector" = type { %"class.icu_75::UObject", i32, i32, ptr, ptr, ptr }
%"class.icu_75::TransliteratorRegistry" = type { [8 x i8], %"class.icu_75::Hashtable", %"class.icu_75::Hashtable", %"class.icu_75::UVector", %"class.icu_75::Hashtable" }
%"class.icu_75::Hashtable" = type { ptr, %struct.UHashtable }
%struct.UHashtable = type { ptr, ptr, ptr, ptr, ptr, ptr, i32, i32, i32, i32, float, float, i8, i8 }
%"class.icu_75::TransliteratorRegistry::Enumeration" = type { %"class.icu_75::StringEnumeration.base", i32, i32, ptr }
%"class.icu_75::StringEnumeration.base" = type <{ %"class.icu_75::UObject", %"class.icu_75::UnicodeString", [32 x i8], ptr, i32 }>

; Function Attrs: mustprogress uwtable
define linkonce_odr noundef i32 @_ZNK6icu_759Hashtable5countEv(ptr noundef nonnull align 8 dereferenceable(88) %this) #1 comdat align 2 {
entry:
  %this.addr = alloca ptr, align 8
  store ptr %this, ptr %this.addr, align 8
  %this1 = load ptr, ptr %this.addr, align 8
  %hash = getelementptr inbounds %"class.icu_75::Hashtable", ptr %this1, i32 0, i32 0
  %0 = load ptr, ptr %hash, align 8
  %call = call i32 @uhash_count_75(ptr noundef %0)
  ret i32 %call
}

; Function Attrs: mustprogress uwtable
define void @_ZN6icu_7522TransliteratorRegistry11Enumeration5resetER10UErrorCode(ptr noundef nonnull align 8 dereferenceable(136) %this, ptr noundef nonnull align 4 dereferenceable(4) %0) unnamed_addr #1 align 2 {
entry:
  %this.addr = alloca ptr, align 8
  %.addr = alloca ptr, align 8
  store ptr %this, ptr %this.addr, align 8
  store ptr %0, ptr %.addr, align 8
  %this1 = load ptr, ptr %this.addr, align 8
  %pos = getelementptr inbounds %"class.icu_75::TransliteratorRegistry::Enumeration", ptr %this1, i32 0, i32 1
  store i32 -1, ptr %pos, align 4
  %reg = getelementptr inbounds %"class.icu_75::TransliteratorRegistry::Enumeration", ptr %this1, i32 0, i32 3
  %1 = load ptr, ptr %reg, align 8
  %availableIDs = getelementptr inbounds %"class.icu_75::TransliteratorRegistry", ptr %1, i32 0, i32 4
  %call = call noundef i32 @_ZNK6icu_759Hashtable5countEv(ptr noundef nonnull align 8 dereferenceable(88) %availableIDs)
  %size = getelementptr inbounds %"class.icu_75::TransliteratorRegistry::Enumeration", ptr %this1, i32 0, i32 2
  store i32 %call, ptr %size, align 8
  ret void
}