; Function Attrs: mustprogress uwtable
define void @_ZN6icu_7522TransliteratorRegistry11Enumeration5resetER10UErrorCode(ptr nocapture noundef nonnull align 8 dereferenceable(136) %this, ptr nocapture nonnull readnone align 4 %0) unnamed_addr #1 align 2 {
entry:
  %pos = getelementptr inbounds i8, ptr %this, i64 116
  store i32 -1, ptr %pos, align 4
  %reg = getelementptr inbounds i8, ptr %this, i64 128
  %1 = load ptr, ptr %reg, align 8
  %availableIDs = getelementptr inbounds i8, ptr %1, i64 224
  %2 = load ptr, ptr %availableIDs, align 8
  %call.i = tail call noundef i32 @uhash_count_75(ptr noundef %2)
  %size = getelementptr inbounds i8, ptr %this, i64 120
  store i32 %call.i, ptr %size, align 8
  ret void
}